target datalayout = "e-m:e-p270:32:32-p271:32:32-p272:64:64-i64:64-i128:128-f80:128-n8:16:32:64-S128"
target triple = "x86_64-pc-linux-gnu"

%struct.KeccakWidth1600_12rounds_SpongeInstanceStruct = type { [200 x i8], i32, i32, i32 }

; Function Attrs: nounwind uwtable
define hidden i32 @KeccakWidth1600_12rounds_SpongeAbsorbLastFewBits(ptr noundef %0, i8 noundef zeroext %1) #0 {
  %3 = alloca i32, align 4
  %4 = alloca ptr, align 8
  %5 = alloca i8, align 1
  %6 = alloca i32, align 4
  %7 = alloca i32, align 4
  store ptr %0, ptr %4, align 8, !tbaa !20
  store i8 %1, ptr %5, align 1, !tbaa !13
  call void @llvm.lifetime.start.p0(i64 4, ptr %6) #3
  %8 = load ptr, ptr %4, align 8, !tbaa !20
  %9 = getelementptr inbounds nuw %struct.KeccakWidth1600_12rounds_SpongeInstanceStruct, ptr %8, i32 0, i32 1
  %10 = load i32, ptr %9, align 8, !tbaa !22
  %11 = udiv i32 %10, 8
  store i32 %11, ptr %6, align 4, !tbaa !4
  %12 = load i8, ptr %5, align 1, !tbaa !13
  %13 = zext i8 %12 to i32
  %14 = icmp eq i32 %13, 0
  br i1 %14, label %15, label %16

15:                                               ; preds = %2
  store i32 1, ptr %3, align 4
  store i32 1, ptr %7, align 4
  br label %70

16:                                               ; preds = %2
  %17 = load ptr, ptr %4, align 8, !tbaa !20
  %18 = getelementptr inbounds nuw %struct.KeccakWidth1600_12rounds_SpongeInstanceStruct, ptr %17, i32 0, i32 3
  %19 = load i32, ptr %18, align 8, !tbaa !25
  %20 = icmp ne i32 %19, 0
  br i1 %20, label %21, label %22

21:                                               ; preds = %16
  store i32 1, ptr %3, align 4
  store i32 1, ptr %7, align 4
  br label %70

22:                                               ; preds = %16
  %23 = load i8, ptr %5, align 1, !tbaa !13
  %24 = zext i8 %23 to i32
  %25 = load ptr, ptr %4, align 8, !tbaa !20
  %26 = getelementptr inbounds nuw %struct.KeccakWidth1600_12rounds_SpongeInstanceStruct, ptr %25, i32 0, i32 0
  %27 = getelementptr inbounds [200 x i8], ptr %26, i64 0, i64 0
  %28 = load ptr, ptr %4, align 8, !tbaa !20
  %29 = getelementptr inbounds nuw %struct.KeccakWidth1600_12rounds_SpongeInstanceStruct, ptr %28, i32 0, i32 2
  %30 = load i32, ptr %29, align 4, !tbaa !24
  %31 = zext i32 %30 to i64
  %32 = getelementptr inbounds nuw i8, ptr %27, i64 %31
  %33 = load i8, ptr %32, align 1, !tbaa !13
  %34 = zext i8 %33 to i32
  %35 = xor i32 %34, %24
  %36 = trunc i32 %35 to i8
  store i8 %36, ptr %32, align 1, !tbaa !13
  %37 = load i8, ptr %5, align 1, !tbaa !13
  %38 = zext i8 %37 to i32
  %39 = icmp sge i32 %38, 128
  br i1 %39, label %40, label %51

40:                                               ; preds = %22
  %41 = load ptr, ptr %4, align 8, !tbaa !20
  %42 = getelementptr inbounds nuw %struct.KeccakWidth1600_12rounds_SpongeInstanceStruct, ptr %41, i32 0, i32 2
  %43 = load i32, ptr %42, align 4, !tbaa !24
  %44 = load i32, ptr %6, align 4, !tbaa !4
  %45 = sub i32 %44, 1
  %46 = icmp eq i32 %43, %45
  br i1 %46, label %47, label %51

47:                                               ; preds = %40
  %48 = load ptr, ptr %4, align 8, !tbaa !20
  %49 = getelementptr inbounds nuw %struct.KeccakWidth1600_12rounds_SpongeInstanceStruct, ptr %48, i32 0, i32 0
  %50 = getelementptr inbounds [200 x i8], ptr %49, i64 0, i64 0
  call void @KeccakP1600_Permute_12rounds(ptr noundef %50)
  br label %51

51:                                               ; preds = %47, %40, %22
  %52 = load ptr, ptr %4, align 8, !tbaa !20
  %53 = getelementptr inbounds nuw %struct.KeccakWidth1600_12rounds_SpongeInstanceStruct, ptr %52, i32 0, i32 0
  %54 = getelementptr inbounds [200 x i8], ptr %53, i64 0, i64 0
  %55 = load i32, ptr %6, align 4, !tbaa !4
  %56 = sub i32 %55, 1
  %57 = zext i32 %56 to i64
  %58 = getelementptr inbounds nuw i8, ptr %54, i64 %57
  %59 = load i8, ptr %58, align 1, !tbaa !13
  %60 = zext i8 %59 to i32
  %61 = xor i32 %60, 128
  %62 = trunc i32 %61 to i8
  store i8 %62, ptr %58, align 1, !tbaa !13
  %63 = load ptr, ptr %4, align 8, !tbaa !20
  %64 = getelementptr inbounds nuw %struct.KeccakWidth1600_12rounds_SpongeInstanceStruct, ptr %63, i32 0, i32 0
  %65 = getelementptr inbounds [200 x i8], ptr %64, i64 0, i64 0
  call void @KeccakP1600_Permute_12rounds(ptr noundef %65)
  %66 = load ptr, ptr %4, align 8, !tbaa !20
  %67 = getelementptr inbounds nuw %struct.KeccakWidth1600_12rounds_SpongeInstanceStruct, ptr %66, i32 0, i32 2
  store i32 0, ptr %67, align 4, !tbaa !24
  %68 = load ptr, ptr %4, align 8, !tbaa !20
  %69 = getelementptr inbounds nuw %struct.KeccakWidth1600_12rounds_SpongeInstanceStruct, ptr %68, i32 0, i32 3
  store i32 1, ptr %69, align 8, !tbaa !25
  store i32 0, ptr %3, align 4
  store i32 1, ptr %7, align 4
  br label %70

70:                                               ; preds = %51, %21, %15
  call void @llvm.lifetime.end.p0(i64 4, ptr %6) #3
  %71 = load i32, ptr %3, align 4
  ret i32 %71
}

; Function Attrs: nounwind uwtable
define hidden i32 @KeccakWidth1600_12rounds_SpongeSqueeze(ptr noundef %0, ptr noundef %1, i64 noundef %2) #0 {
  %4 = alloca ptr, align 8
  %5 = alloca ptr, align 8
  %6 = alloca i64, align 8
  %7 = alloca i64, align 8
  %8 = alloca i64, align 8
  %9 = alloca i32, align 4
  %10 = alloca i32, align 4
  %11 = alloca ptr, align 8
  store ptr %0, ptr %4, align 8, !tbaa !20
  store ptr %1, ptr %5, align 8, !tbaa !8
  store i64 %2, ptr %6, align 8, !tbaa !11
  call void @llvm.lifetime.start.p0(i64 8, ptr %7) #3
  call void @llvm.lifetime.start.p0(i64 8, ptr %8) #3
  call void @llvm.lifetime.start.p0(i64 4, ptr %9) #3
  call void @llvm.lifetime.start.p0(i64 4, ptr %10) #3
  %12 = load ptr, ptr %4, align 8, !tbaa !20
  %13 = getelementptr inbounds nuw %struct.KeccakWidth1600_12rounds_SpongeInstanceStruct, ptr %12, i32 0, i32 1
  %14 = load i32, ptr %13, align 8, !tbaa !22
  %15 = udiv i32 %14, 8
  store i32 %15, ptr %10, align 4, !tbaa !4
  call void @llvm.lifetime.start.p0(i64 8, ptr %11) #3
  %16 = load ptr, ptr %4, align 8, !tbaa !20
  %17 = getelementptr inbounds nuw %struct.KeccakWidth1600_12rounds_SpongeInstanceStruct, ptr %16, i32 0, i32 3
  %18 = load i32, ptr %17, align 8, !tbaa !25
  %19 = icmp ne i32 %18, 0
  br i1 %19, label %23, label %20

20:                                               ; preds = %3
  %21 = load ptr, ptr %4, align 8, !tbaa !20
  %22 = call i32 @KeccakWidth1600_12rounds_SpongeAbsorbLastFewBits(ptr noundef %21, i8 noundef zeroext 1)
  br label %23

23:                                               ; preds = %20, %3
  store i64 0, ptr %7, align 8, !tbaa !11
  %24 = load ptr, ptr %5, align 8, !tbaa !8
  store ptr %24, ptr %11, align 8, !tbaa !8
  br label %25

25:                                               ; preds = %129, %23
  %26 = load i64, ptr %7, align 8, !tbaa !11
  %27 = load i64, ptr %6, align 8, !tbaa !11
  %28 = icmp ult i64 %26, %27
  br i1 %28, label %29, label %130

29:                                               ; preds = %25
  %30 = load ptr, ptr %4, align 8, !tbaa !20
  %31 = getelementptr inbounds nuw %struct.KeccakWidth1600_12rounds_SpongeInstanceStruct, ptr %30, i32 0, i32 2
  %32 = load i32, ptr %31, align 4, !tbaa !24
  %33 = load i32, ptr %10, align 4, !tbaa !4
  %34 = icmp eq i32 %32, %33
  br i1 %34, label %35, label %73

35:                                               ; preds = %29
  %36 = load i64, ptr %6, align 8, !tbaa !11
  %37 = load i64, ptr %7, align 8, !tbaa !11
  %38 = sub i64 %36, %37
  %39 = load i32, ptr %10, align 4, !tbaa !4
  %40 = zext i32 %39 to i64
  %41 = icmp uge i64 %38, %40
  br i1 %41, label %42, label %73

42:                                               ; preds = %35
  %43 = load i64, ptr %6, align 8, !tbaa !11
  %44 = load i64, ptr %7, align 8, !tbaa !11
  %45 = sub i64 %43, %44
  store i64 %45, ptr %8, align 8, !tbaa !11
  br label %46

46:                                               ; preds = %64, %42
  %47 = load i64, ptr %8, align 8, !tbaa !11
  %48 = load i32, ptr %10, align 4, !tbaa !4
  %49 = zext i32 %48 to i64
  %50 = icmp uge i64 %47, %49
  br i1 %50, label %51, label %69

51:                                               ; preds = %46
  %52 = load ptr, ptr %4, align 8, !tbaa !20
  %53 = getelementptr inbounds nuw %struct.KeccakWidth1600_12rounds_SpongeInstanceStruct, ptr %52, i32 0, i32 0
  %54 = getelementptr inbounds [200 x i8], ptr %53, i64 0, i64 0
  call void @KeccakP1600_Permute_12rounds(ptr noundef %54)
  %55 = load ptr, ptr %4, align 8, !tbaa !20
  %56 = getelementptr inbounds nuw %struct.KeccakWidth1600_12rounds_SpongeInstanceStruct, ptr %55, i32 0, i32 0
  %57 = getelementptr inbounds [200 x i8], ptr %56, i64 0, i64 0
  %58 = load ptr, ptr %11, align 8, !tbaa !8
  %59 = load i32, ptr %10, align 4, !tbaa !4
  call void @KeccakP1600_ExtractBytes(ptr noundef %57, ptr noundef %58, i32 noundef 0, i32 noundef %59)
  %60 = load i32, ptr %10, align 4, !tbaa !4
  %61 = load ptr, ptr %11, align 8, !tbaa !8
  %62 = zext i32 %60 to i64
  %63 = getelementptr inbounds nuw i8, ptr %61, i64 %62
  store ptr %63, ptr %11, align 8, !tbaa !8
  br label %64

64:                                               ; preds = %51
  %65 = load i32, ptr %10, align 4, !tbaa !4
  %66 = zext i32 %65 to i64
  %67 = load i64, ptr %8, align 8, !tbaa !11
  %68 = sub i64 %67, %66
  store i64 %68, ptr %8, align 8, !tbaa !11
  br label %46

69:                                               ; preds = %46
  %70 = load i64, ptr %6, align 8, !tbaa !11
  %71 = load i64, ptr %8, align 8, !tbaa !11
  %72 = sub i64 %70, %71
  store i64 %72, ptr %7, align 8, !tbaa !11
  br label %129

73:                                               ; preds = %35, %29
  %74 = load ptr, ptr %4, align 8, !tbaa !20
  %75 = getelementptr inbounds nuw %struct.KeccakWidth1600_12rounds_SpongeInstanceStruct, ptr %74, i32 0, i32 2
  %76 = load i32, ptr %75, align 4, !tbaa !24
  %77 = load i32, ptr %10, align 4, !tbaa !4
  %78 = icmp eq i32 %76, %77
  br i1 %78, label %79, label %85

79:                                               ; preds = %73
  %80 = load ptr, ptr %4, align 8, !tbaa !20
  %81 = getelementptr inbounds nuw %struct.KeccakWidth1600_12rounds_SpongeInstanceStruct, ptr %80, i32 0, i32 0
  %82 = getelementptr inbounds [200 x i8], ptr %81, i64 0, i64 0
  call void @KeccakP1600_Permute_12rounds(ptr noundef %82)
  %83 = load ptr, ptr %4, align 8, !tbaa !20
  %84 = getelementptr inbounds nuw %struct.KeccakWidth1600_12rounds_SpongeInstanceStruct, ptr %83, i32 0, i32 2
  store i32 0, ptr %84, align 4, !tbaa !24
  br label %85

85:                                               ; preds = %79, %73
  %86 = load i64, ptr %6, align 8, !tbaa !11
  %87 = load i64, ptr %7, align 8, !tbaa !11
  %88 = sub i64 %86, %87
  %89 = load i32, ptr %10, align 4, !tbaa !4
  %90 = load ptr, ptr %4, align 8, !tbaa !20
  %91 = getelementptr inbounds nuw %struct.KeccakWidth1600_12rounds_SpongeInstanceStruct, ptr %90, i32 0, i32 2
  %92 = load i32, ptr %91, align 4, !tbaa !24
  %93 = sub i32 %89, %92
  %94 = zext i32 %93 to i64
  %95 = icmp ugt i64 %88, %94
  br i1 %95, label %96, label %102

96:                                               ; preds = %85
  %97 = load i32, ptr %10, align 4, !tbaa !4
  %98 = load ptr, ptr %4, align 8, !tbaa !20
  %99 = getelementptr inbounds nuw %struct.KeccakWidth1600_12rounds_SpongeInstanceStruct, ptr %98, i32 0, i32 2
  %100 = load i32, ptr %99, align 4, !tbaa !24
  %101 = sub i32 %97, %100
  store i32 %101, ptr %9, align 4, !tbaa !4
  br label %107

102:                                              ; preds = %85
  %103 = load i64, ptr %6, align 8, !tbaa !11
  %104 = load i64, ptr %7, align 8, !tbaa !11
  %105 = sub i64 %103, %104
  %106 = trunc i64 %105 to i32
  store i32 %106, ptr %9, align 4, !tbaa !4
  br label %107

107:                                              ; preds = %102, %96
  %108 = load i32, ptr %9, align 4, !tbaa !4
  %109 = zext i32 %108 to i64
  %110 = load i64, ptr %7, align 8, !tbaa !11
  %111 = add i64 %110, %109
  store i64 %111, ptr %7, align 8, !tbaa !11
  %112 = load ptr, ptr %4, align 8, !tbaa !20
  %113 = getelementptr inbounds nuw %struct.KeccakWidth1600_12rounds_SpongeInstanceStruct, ptr %112, i32 0, i32 0
  %114 = getelementptr inbounds [200 x i8], ptr %113, i64 0, i64 0
  %115 = load ptr, ptr %11, align 8, !tbaa !8
  %116 = load ptr, ptr %4, align 8, !tbaa !20
  %117 = getelementptr inbounds nuw %struct.KeccakWidth1600_12rounds_SpongeInstanceStruct, ptr %116, i32 0, i32 2
  %118 = load i32, ptr %117, align 4, !tbaa !24
  %119 = load i32, ptr %9, align 4, !tbaa !4
  call void @KeccakP1600_ExtractBytes(ptr noundef %114, ptr noundef %115, i32 noundef %118, i32 noundef %119)
  %120 = load i32, ptr %9, align 4, !tbaa !4
  %121 = load ptr, ptr %11, align 8, !tbaa !8
  %122 = zext i32 %120 to i64
  %123 = getelementptr inbounds nuw i8, ptr %121, i64 %122
  store ptr %123, ptr %11, align 8, !tbaa !8
  %124 = load i32, ptr %9, align 4, !tbaa !4
  %125 = load ptr, ptr %4, align 8, !tbaa !20
  %126 = getelementptr inbounds nuw %struct.KeccakWidth1600_12rounds_SpongeInstanceStruct, ptr %125, i32 0, i32 2
  %127 = load i32, ptr %126, align 4, !tbaa !24
  %128 = add i32 %127, %124
  store i32 %128, ptr %126, align 4, !tbaa !24
  br label %129

129:                                              ; preds = %107, %69
  br label %25

130:                                              ; preds = %25
  call void @llvm.lifetime.end.p0(i64 8, ptr %11) #3
  call void @llvm.lifetime.end.p0(i64 4, ptr %10) #3
  call void @llvm.lifetime.end.p0(i64 4, ptr %9) #3
  call void @llvm.lifetime.end.p0(i64 8, ptr %8) #3
  call void @llvm.lifetime.end.p0(i64 8, ptr %7) #3
  ret i32 0
}